target datalayout = "e-m:e-p270:32:32-p271:32:32-p272:64:64-i64:64-i128:128-f80:128-n8:16:32:64-S128"
target triple = "x86_64-pc-linux-gnu"

%struct.ident_t = type { i32, i32, i32, i32, ptr }
%"class.gmx::ArrayRef.13" = type { %"struct.gmx::ArrayRefIter.14", %"struct.gmx::ArrayRefIter.14" }
%"struct.gmx::ArrayRefIter.14" = type { ptr }
%"struct.std::_Vector_base.89" = type { %"struct.std::_Vector_base<gmx::BasicVector<float>, gmx::Allocator<gmx::BasicVector<float>, gmx::HostAllocationPolicy>>::_Vector_impl" }
%"struct.std::_Vector_base<gmx::BasicVector<float>, gmx::Allocator<gmx::BasicVector<float>, gmx::HostAllocationPolicy>>::_Vector_impl" = type { %"class.gmx::Allocator", %"struct.std::_Vector_base<gmx::BasicVector<float>, gmx::Allocator<gmx::BasicVector<float>, gmx::HostAllocationPolicy>>::_Vector_impl_data" }
%"class.gmx::Allocator" = type { %"class.gmx::HostAllocationPolicy" }
%"class.gmx::HostAllocationPolicy" = type { i32 }
%"struct.std::_Vector_base<gmx::BasicVector<float>, gmx::Allocator<gmx::BasicVector<float>, gmx::HostAllocationPolicy>>::_Vector_impl_data" = type { ptr, ptr, ptr }
%"class.gmx::BasicVector.103" = type { [3 x float] }

@1 = private unnamed_addr constant %struct.ident_t { i32 0, i32 514, i32 0, i32 22, ptr @0 }, align 8

; Function Attrs: mustprogress nounwind uwtable
define linkonce_odr void @_ZN3gmx11BasicVectorIfEC2Efff(ptr noundef nonnull align 4 dereferenceable(12) %0, float noundef %1, float noundef %2, float noundef %3) unnamed_addr #1 comdat align 2 {
  %5 = alloca ptr, align 8
  %6 = alloca float, align 4
  %7 = alloca float, align 4
  %8 = alloca float, align 4
  store ptr %0, ptr %5, align 8
  store float %1, ptr %6, align 4
  store float %2, ptr %7, align 4
  store float %3, ptr %8, align 4
  %9 = load ptr, ptr %5, align 8
  %10 = getelementptr inbounds %"class.gmx::BasicVector.103", ptr %9, i32 0, i32 0
  %11 = getelementptr inbounds [3 x float], ptr %10, i64 0, i64 0
  %12 = load float, ptr %6, align 4
  store float %12, ptr %11, align 4
  %13 = getelementptr inbounds float, ptr %11, i64 1
  %14 = load float, ptr %7, align 4
  store float %14, ptr %13, align 4
  %15 = getelementptr inbounds float, ptr %13, i64 1
  %16 = load float, ptr %8, align 4
  store float %16, ptr %15, align 4
  ret void
}

; Function Attrs: mustprogress nounwind uwtable
define linkonce_odr noundef float @_ZNK3gmx11BasicVectorIfEixEi(ptr noundef nonnull align 4 dereferenceable(12) %0, i32 noundef %1) #1 comdat align 2 {
  %3 = alloca ptr, align 8
  %4 = alloca i32, align 4
  store ptr %0, ptr %3, align 8
  store i32 %1, ptr %4, align 4
  %5 = load ptr, ptr %3, align 8
  %6 = getelementptr inbounds %"class.gmx::BasicVector.103", ptr %5, i32 0, i32 0
  %7 = load i32, ptr %4, align 4
  %8 = sext i32 %7 to i64
  %9 = getelementptr inbounds [3 x float], ptr %6, i64 0, i64 %8
  %10 = load float, ptr %9, align 4
  ret float %10
}

; Function Attrs: mustprogress nounwind uwtable
define linkonce_odr noundef nonnull align 4 dereferenceable(12) ptr @_ZNK3gmx12ArrayRefIterINS_11BasicVectorIfEEEdeEv(ptr noundef nonnull align 8 dereferenceable(8) %0) #1 comdat align 2 {
  %2 = alloca ptr, align 8
  store ptr %0, ptr %2, align 8
  %3 = load ptr, ptr %2, align 8
  %4 = getelementptr inbounds %"struct.gmx::ArrayRefIter.14", ptr %3, i32 0, i32 0
  %5 = load ptr, ptr %4, align 8
  ret ptr %5
}

; Function Attrs: mustprogress nounwind uwtable
define linkonce_odr noundef nonnull align 8 dereferenceable(8) ptr @_ZN3gmx12ArrayRefIterINS_11BasicVectorIfEEEpLEl(ptr noundef nonnull align 8 dereferenceable(8) %0, i64 noundef %1) #1 comdat align 2 {
  %3 = alloca ptr, align 8
  %4 = alloca i64, align 8
  store ptr %0, ptr %3, align 8
  store i64 %1, ptr %4, align 8
  %5 = load ptr, ptr %3, align 8
  %6 = load i64, ptr %4, align 8
  %7 = getelementptr inbounds %"struct.gmx::ArrayRefIter.14", ptr %5, i32 0, i32 0
  %8 = load ptr, ptr %7, align 8
  %9 = getelementptr inbounds %"class.gmx::BasicVector.103", ptr %8, i64 %6
  store ptr %9, ptr %7, align 8
  ret ptr %5
}

; Function Attrs: mustprogress nounwind uwtable
define linkonce_odr noundef nonnull align 8 dereferenceable(8) ptr @_ZNK3gmx5boost14stl_interfaces2v118iterator_interfaceINS_12ArrayRefIterINS_11BasicVectorIfEEEESt26random_access_iterator_tagS6_RS6_PS6_lvE7derivedEv(ptr noundef nonnull align 1 dereferenceable(1) %0) #1 comdat align 2 {
  %2 = alloca ptr, align 8
  store ptr %0, ptr %2, align 8
  %3 = load ptr, ptr %2, align 8
  ret ptr %3
}

; Function Attrs: mustprogress uwtable
define linkonce_odr { <2 x float>, float } @_ZNK3gmx11BasicVectorIfEplERKS1_(ptr noundef nonnull align 4 dereferenceable(12) %0, ptr noundef nonnull align 4 dereferenceable(12) %1) #0 comdat align 2 {
  %3 = alloca %"class.gmx::BasicVector.103", align 4
  %4 = alloca ptr, align 8
  %5 = alloca ptr, align 8
  %6 = alloca { <2 x float>, float }, align 8
  store ptr %0, ptr %4, align 8
  store ptr %1, ptr %5, align 8
  %7 = load ptr, ptr %4, align 8
  %8 = getelementptr inbounds %"class.gmx::BasicVector.103", ptr %7, i32 0, i32 0
  %9 = getelementptr inbounds [3 x float], ptr %8, i64 0, i64 0
  %10 = load float, ptr %9, align 4
  %11 = load ptr, ptr %5, align 8
  %12 = call noundef float @_ZNK3gmx11BasicVectorIfEixEi(ptr noundef nonnull align 4 dereferenceable(12) %11, i32 noundef 0)
  %13 = fadd float %10, %12
  %14 = getelementptr inbounds %"class.gmx::BasicVector.103", ptr %7, i32 0, i32 0
  %15 = getelementptr inbounds [3 x float], ptr %14, i64 0, i64 1
  %16 = load float, ptr %15, align 4
  %17 = load ptr, ptr %5, align 8
  %18 = call noundef float @_ZNK3gmx11BasicVectorIfEixEi(ptr noundef nonnull align 4 dereferenceable(12) %17, i32 noundef 1)
  %19 = fadd float %16, %18
  %20 = getelementptr inbounds %"class.gmx::BasicVector.103", ptr %7, i32 0, i32 0
  %21 = getelementptr inbounds [3 x float], ptr %20, i64 0, i64 2
  %22 = load float, ptr %21, align 4
  %23 = load ptr, ptr %5, align 8
  %24 = call noundef float @_ZNK3gmx11BasicVectorIfEixEi(ptr noundef nonnull align 4 dereferenceable(12) %23, i32 noundef 2)
  %25 = fadd float %22, %24
  call void @_ZN3gmx11BasicVectorIfEC2Efff(ptr noundef nonnull align 4 dereferenceable(12) %3, float noundef %13, float noundef %19, float noundef %25)
  %26 = getelementptr inbounds %"class.gmx::BasicVector.103", ptr %3, i32 0, i32 0
  call void @llvm.memcpy.p0.p0.i64(ptr align 8 %6, ptr align 4 %26, i64 12, i1 false)
  %27 = load { <2 x float>, float }, ptr %6, align 8
  ret { <2 x float>, float } %27
}

; Function Attrs: mustprogress nounwind uwtable
define linkonce_odr noundef nonnull align 4 dereferenceable(12) ptr @_ZNK3gmx5boost14stl_interfaces2v118iterator_interfaceINS_12ArrayRefIterINS_11BasicVectorIfEEEESt26random_access_iterator_tagS6_RS6_PS6_lvEixIS7_EEDTcmpLclsr3stdE7declvalIRT_EEfp_declsr3stdE7declvalISE_EEEl(ptr noundef nonnull align 1 dereferenceable(1) %0, i64 noundef %1) #1 comdat align 2 {
  %3 = alloca ptr, align 8
  %4 = alloca i64, align 8
  %5 = alloca %"struct.gmx::ArrayRefIter.14", align 8
  store ptr %0, ptr %3, align 8
  store i64 %1, ptr %4, align 8
  %6 = load ptr, ptr %3, align 8
  %7 = call noundef nonnull align 8 dereferenceable(8) ptr @_ZNK3gmx5boost14stl_interfaces2v118iterator_interfaceINS_12ArrayRefIterINS_11BasicVectorIfEEEESt26random_access_iterator_tagS6_RS6_PS6_lvE7derivedEv(ptr noundef nonnull align 1 dereferenceable(1) %6) #10
  call void @llvm.memcpy.p0.p0.i64(ptr align 8 %5, ptr align 8 %7, i64 8, i1 false)
  %8 = load i64, ptr %4, align 8
  %9 = call noundef nonnull align 8 dereferenceable(8) ptr @_ZN3gmx12ArrayRefIterINS_11BasicVectorIfEEEpLEl(ptr noundef nonnull align 8 dereferenceable(8) %5, i64 noundef %8) #10
  %10 = call noundef nonnull align 4 dereferenceable(12) ptr @_ZNK3gmx12ArrayRefIterINS_11BasicVectorIfEEEdeEv(ptr noundef nonnull align 8 dereferenceable(8) %5) #10
  ret ptr %10
}

; Function Attrs: noreturn nounwind uwtable
define linkonce_odr hidden void @__clang_call_terminate(ptr noundef %0) #5 comdat {
  %2 = call ptr @__cxa_begin_catch(ptr %0) #10
  call void @_ZSt9terminatev() #11
  unreachable
}

; Function Attrs: mustprogress uwtable
define linkonce_odr noundef nonnull align 4 dereferenceable(12) ptr @_ZN3gmx11BasicVectorIfEpLERKS1_(ptr noundef nonnull align 4 dereferenceable(12) %0, ptr noundef nonnull align 4 dereferenceable(12) %1) #8 comdat align 2 {
  %3 = alloca ptr, align 8
  %4 = alloca ptr, align 8
  %5 = alloca %"class.gmx::BasicVector.103", align 4
  %6 = alloca { <2 x float>, float }, align 8
  store ptr %0, ptr %3, align 8
  store ptr %1, ptr %4, align 8
  %7 = load ptr, ptr %3, align 8
  %8 = load ptr, ptr %4, align 8
  %9 = call { <2 x float>, float } @_ZNK3gmx11BasicVectorIfEplERKS1_(ptr noundef nonnull align 4 dereferenceable(12) %7, ptr noundef nonnull align 4 dereferenceable(12) %8)
  %10 = getelementptr inbounds %"class.gmx::BasicVector.103", ptr %5, i32 0, i32 0
  store { <2 x float>, float } %9, ptr %6, align 8
  call void @llvm.memcpy.p0.p0.i64(ptr align 4 %10, ptr align 8 %6, i64 12, i1 false)
  call void @llvm.memcpy.p0.p0.i64(ptr align 4 %7, ptr align 4 %5, i64 12, i1 false)
  ret ptr %7
}

; Function Attrs: mustprogress nounwind uwtable
define linkonce_odr noundef nonnull align 4 dereferenceable(12) ptr @_ZNK3gmx8ArrayRefINS_11BasicVectorIfEEEixEm(ptr noundef nonnull align 8 dereferenceable(16) %0, i64 noundef %1) #1 comdat align 2 {
  %3 = alloca ptr, align 8
  %4 = alloca i64, align 8
  store ptr %0, ptr %3, align 8
  store i64 %1, ptr %4, align 8
  %5 = load ptr, ptr %3, align 8
  %6 = getelementptr inbounds %"class.gmx::ArrayRef.13", ptr %5, i32 0, i32 0
  %7 = load i64, ptr %4, align 8
  %8 = call noundef nonnull align 4 dereferenceable(12) ptr @_ZNK3gmx5boost14stl_interfaces2v118iterator_interfaceINS_12ArrayRefIterINS_11BasicVectorIfEEEESt26random_access_iterator_tagS6_RS6_PS6_lvEixIS7_EEDTcmpLclsr3stdE7declvalIRT_EEfp_declsr3stdE7declvalISE_EEEl(ptr noundef nonnull align 1 dereferenceable(1) %6, i64 noundef %7) #10
  ret ptr %8
}

; Function Attrs: mustprogress nounwind uwtable
define linkonce_odr noundef nonnull align 4 dereferenceable(12) ptr @_ZNSt6vectorIN3gmx11BasicVectorIfEENS0_9AllocatorIS2_NS0_20HostAllocationPolicyEEEEixEm(ptr noundef nonnull align 8 dereferenceable(32) %0, i64 noundef %1) #1 comdat align 2 {
  %3 = alloca ptr, align 8
  %4 = alloca i64, align 8
  store ptr %0, ptr %3, align 8
  store i64 %1, ptr %4, align 8
  %5 = load ptr, ptr %3, align 8
  %6 = getelementptr inbounds %"struct.std::_Vector_base.89", ptr %5, i32 0, i32 0
  %7 = getelementptr inbounds i8, ptr %6, i64 8
  %8 = getelementptr inbounds %"struct.std::_Vector_base<gmx::BasicVector<float>, gmx::Allocator<gmx::BasicVector<float>, gmx::HostAllocationPolicy>>::_Vector_impl_data", ptr %7, i32 0, i32 0
  %9 = load ptr, ptr %8, align 8
  %10 = load i64, ptr %4, align 8
  %11 = getelementptr inbounds %"class.gmx::BasicVector.103", ptr %9, i64 %10
  ret ptr %11
}

; Function Attrs: norecurse nounwind uwtable
define internal void @_Z17gmx_pme_receive_fPN3gmx12PmePpCommGpuEPK9t_commrecPNS_15ForceWithVirialEPfS7_S7_S7_bbS7_.omp_outlined(ptr noalias noundef %0, ptr noalias noundef %1, ptr noundef nonnull align 4 dereferenceable(4) %2, ptr noundef nonnull align 8 dereferenceable(16) %3, ptr noundef nonnull align 8 dereferenceable(32) %4) #9 personality ptr @__gxx_personality_v0 {
  %6 = alloca ptr, align 8
  %7 = alloca ptr, align 8
  %8 = alloca ptr, align 8
  %9 = alloca ptr, align 8
  %10 = alloca ptr, align 8
  %11 = alloca ptr, align 8
  %12 = alloca i32, align 4
  %13 = alloca i32, align 4
  %14 = alloca i32, align 4
  %15 = alloca i32, align 4
  %16 = alloca i32, align 4
  %17 = alloca i32, align 4
  %18 = alloca i32, align 4
  %19 = alloca i32, align 4
  %20 = alloca i32, align 4
  store ptr %0, ptr %6, align 8
  store ptr %1, ptr %7, align 8
  store ptr %2, ptr %8, align 8
  store ptr %3, ptr %9, align 8
  store ptr %4, ptr %10, align 8
  %21 = load ptr, ptr %8, align 8
  %22 = load ptr, ptr %9, align 8
  %23 = load ptr, ptr %10, align 8
  store ptr %23, ptr %11, align 8
  %24 = load i32, ptr %21, align 4
  store i32 %24, ptr %13, align 4
  %25 = load i32, ptr %13, align 4
  %26 = sub nsw i32 %25, 0
  %27 = sdiv i32 %26, 1
  %28 = sub nsw i32 %27, 1
  store i32 %28, ptr %14, align 4
  store i32 0, ptr %15, align 4
  %29 = load i32, ptr %13, align 4
  %30 = icmp slt i32 0, %29
  br i1 %30, label %31, label %71

31:                                               ; preds = %5
  store i32 0, ptr %16, align 4
  %32 = load i32, ptr %14, align 4
  store i32 %32, ptr %17, align 4
  store i32 1, ptr %18, align 4
  store i32 0, ptr %19, align 4
  %33 = load ptr, ptr %6, align 8
  %34 = load i32, ptr %33, align 4
  call void @__kmpc_for_static_init_4(ptr @1, i32 %34, i32 34, ptr %19, ptr %16, ptr %17, ptr %18, i32 1, i32 1)
  %35 = load i32, ptr %17, align 4
  %36 = load i32, ptr %14, align 4
  %37 = icmp sgt i32 %35, %36
  br i1 %37, label %38, label %40

38:                                               ; preds = %31
  %39 = load i32, ptr %14, align 4
  br label %42

40:                                               ; preds = %31
  %41 = load i32, ptr %17, align 4
  br label %42

42:                                               ; preds = %40, %38
  %43 = phi i32 [ %39, %38 ], [ %41, %40 ]
  store i32 %43, ptr %17, align 4
  %44 = load i32, ptr %16, align 4
  store i32 %44, ptr %12, align 4
  br label %45

45:                                               ; preds = %64, %42
  %46 = load i32, ptr %12, align 4
  %47 = load i32, ptr %17, align 4
  %48 = icmp sle i32 %46, %47
  br i1 %48, label %49, label %67

49:                                               ; preds = %45
  %50 = load i32, ptr %12, align 4
  %51 = mul nsw i32 %50, 1
  %52 = add nsw i32 0, %51
  store i32 %52, ptr %20, align 4
  %53 = load ptr, ptr %11, align 8
  %54 = load i32, ptr %20, align 4
  %55 = sext i32 %54 to i64
  %56 = call noundef nonnull align 4 dereferenceable(12) ptr @_ZNSt6vectorIN3gmx11BasicVectorIfEENS0_9AllocatorIS2_NS0_20HostAllocationPolicyEEEEixEm(ptr noundef nonnull align 8 dereferenceable(32) %53, i64 noundef %55) #10
  %57 = load i32, ptr %20, align 4
  %58 = sext i32 %57 to i64
  %59 = invoke noundef nonnull align 4 dereferenceable(12) ptr @_ZNK3gmx8ArrayRefINS_11BasicVectorIfEEEixEm(ptr noundef nonnull align 8 dereferenceable(16) %22, i64 noundef %58)
          to label %60 unwind label %72

60:                                               ; preds = %49
  %61 = invoke noundef nonnull align 4 dereferenceable(12) ptr @_ZN3gmx11BasicVectorIfEpLERKS1_(ptr noundef nonnull align 4 dereferenceable(12) %59, ptr noundef nonnull align 4 dereferenceable(12) %56)
          to label %62 unwind label %72

62:                                               ; preds = %60
  br label %63

63:                                               ; preds = %62
  br label %64

64:                                               ; preds = %63
  %65 = load i32, ptr %12, align 4
  %66 = add nsw i32 %65, 1
  store i32 %66, ptr %12, align 4
  br label %45

67:                                               ; preds = %45
  br label %68

68:                                               ; preds = %67
  %69 = load ptr, ptr %6, align 8
  %70 = load i32, ptr %69, align 4
  call void @__kmpc_for_static_fini(ptr @1, i32 %70)
  br label %71

71:                                               ; preds = %68, %5
  ret void

72:                                               ; preds = %60, %49
  %73 = landingpad { ptr, i32 }
          catch ptr null
  %74 = extractvalue { ptr, i32 } %73, 0
  call void @__clang_call_terminate(ptr %74) #11
  unreachable
}