; Function Attrs: norecurse nounwind uwtable
define internal void @_Z17gmx_pme_receive_fPN3gmx12PmePpCommGpuEPK9t_commrecPNS_15ForceWithVirialEPfS7_S7_S7_bbS7_.omp_outlined(ptr noalias nocapture noundef readonly %0, ptr noalias nocapture readnone %1, ptr nocapture noundef nonnull readonly align 4 dereferenceable(4) %2, ptr nocapture noundef nonnull readonly align 8 dereferenceable(16) %3, ptr nocapture noundef nonnull readonly align 8 dereferenceable(32) %4) #7 personality ptr @__gxx_personality_v0 {
  %6 = alloca i32, align 4
  %7 = alloca i32, align 4
  %8 = alloca i32, align 4
  %9 = alloca i32, align 4
  %10 = load i32, ptr %2, align 4
  %11 = icmp sgt i32 %10, 0
  br i1 %11, label %12, label %36

12:                                               ; preds = %5
  %13 = add nsw i32 %10, -1
  store i32 0, ptr %6, align 4
  store i32 %13, ptr %7, align 4
  store i32 1, ptr %8, align 4
  store i32 0, ptr %9, align 4
  %14 = load i32, ptr %0, align 4
  call void @__kmpc_for_static_init_4(ptr nonnull @1, i32 %14, i32 34, ptr nonnull %9, ptr nonnull %6, ptr nonnull %7, ptr nonnull %8, i32 1, i32 1)
  %15 = load i32, ptr %7, align 4
  %16 = call i32 @llvm.smin.i32(i32 %15, i32 %13)
  store i32 %16, ptr %7, align 4
  %17 = load i32, ptr %6, align 4
  %.not15 = icmp sgt i32 %17, %16
  br i1 %.not15, label %._crit_edge, label %.lr.ph

.lr.ph:                                           ; preds = %12
  %18 = getelementptr inbounds i8, ptr %4, i64 8
  %19 = sext i32 %17 to i64
  br label %20

20:                                               ; preds = %.lr.ph, %20
  %indvars.iv = phi i64 [ %19, %.lr.ph ], [ %indvars.iv.next, %20 ]
  %21 = load ptr, ptr %18, align 8
  %22 = getelementptr inbounds %"class.gmx::BasicVector.103", ptr %21, i64 %indvars.iv
  %23 = load i64, ptr %3, align 8
  %24 = inttoptr i64 %23 to ptr
  %25 = getelementptr inbounds %"class.gmx::BasicVector.103", ptr %24, i64 %indvars.iv
  %26 = load <2 x float>, ptr %25, align 4
  %27 = load <2 x float>, ptr %22, align 4
  %28 = fadd <2 x float> %26, %27
  %29 = getelementptr inbounds i8, ptr %25, i64 8
  %30 = load float, ptr %29, align 4
  %31 = getelementptr inbounds i8, ptr %22, i64 8
  %32 = load float, ptr %31, align 4
  %33 = fadd float %30, %32
  store <2 x float> %28, ptr %25, align 4
  store float %33, ptr %29, align 4
  %indvars.iv.next = add nsw i64 %indvars.iv, 1
  %34 = load i32, ptr %7, align 4
  %35 = sext i32 %34 to i64
  %.not.not = icmp slt i64 %indvars.iv, %35
  br i1 %.not.not, label %20, label %._crit_edge

._crit_edge:                                      ; preds = %20, %12
  call void @__kmpc_for_static_fini(ptr nonnull @1, i32 %14)
  br label %36

36:                                               ; preds = %._crit_edge, %5
  ret void
}